target datalayout = "e-m:e-p270:32:32-p271:32:32-p272:64:64-i64:64-i128:128-f80:128-n8:16:32:64-S128"
target triple = "x86_64-pc-linux-gnu"

%struct.FunctionCallInfoBaseData = type { ptr, ptr, ptr, i32, i8, i16, [0 x %struct.NullableDatum] }
%struct.NullableDatum = type { i64, i8 }

; Function Attrs: inlinehint nounwind uwtable
define internal i64 @BoolGetDatum(i1 noundef zeroext %0) #7 {
  %2 = alloca i8, align 1
  %3 = zext i1 %0 to i8
  store i8 %3, ptr %2, align 1
  %4 = load i8, ptr %2, align 1, !range !4, !noundef !5
  %5 = trunc i8 %4 to i1
  %6 = select i1 %5, i32 1, i32 0
  %7 = sext i32 %6 to i64
  ret i64 %7
}

; Function Attrs: inlinehint nounwind uwtable
define internal i32 @DatumGetObjectId(i64 noundef %0) #7 {
  %2 = alloca i64, align 8
  store i64 %0, ptr %2, align 8
  %3 = load i64, ptr %2, align 8
  %4 = trunc i64 %3 to i32
  ret i32 %4
}

; Function Attrs: nounwind uwtable
define dso_local i64 @pg_ts_parser_is_visible(ptr noundef %0) #0 {
  %2 = alloca i64, align 8
  %3 = alloca ptr, align 8
  %4 = alloca i32, align 4
  %5 = alloca i8, align 1
  %6 = alloca i8, align 1
  %7 = alloca i32, align 4
  store ptr %0, ptr %3, align 8
  call void @llvm.lifetime.start.p0(i64 4, ptr %4) #14
  %8 = load ptr, ptr %3, align 8
  %9 = getelementptr inbounds nuw %struct.FunctionCallInfoBaseData, ptr %8, i32 0, i32 6
  %10 = getelementptr inbounds [0 x %struct.NullableDatum], ptr %9, i64 0, i64 0
  %11 = getelementptr inbounds nuw %struct.NullableDatum, ptr %10, i32 0, i32 0
  %12 = load i64, ptr %11, align 8
  %13 = call i32 @DatumGetObjectId(i64 noundef %12)
  store i32 %13, ptr %4, align 4
  call void @llvm.lifetime.start.p0(i64 1, ptr %5) #14
  call void @llvm.lifetime.start.p0(i64 1, ptr %6) #14
  store i8 0, ptr %6, align 1
  %14 = load i32, ptr %4, align 4
  %15 = call zeroext i1 @TSParserIsVisibleExt(i32 noundef %14, ptr noundef %6)
  %16 = zext i1 %15 to i8
  store i8 %16, ptr %5, align 1
  %17 = load i8, ptr %6, align 1, !range !4, !noundef !5
  %18 = trunc i8 %17 to i1
  br i1 %18, label %19, label %25

19:                                               ; preds = %1
  br label %20

20:                                               ; preds = %19
  %21 = load ptr, ptr %3, align 8
  %22 = getelementptr inbounds nuw %struct.FunctionCallInfoBaseData, ptr %21, i32 0, i32 4
  store i8 1, ptr %22, align 4
  store i64 0, ptr %2, align 8
  store i32 1, ptr %7, align 4
  br label %29

23:                                               ; No predecessors!
  br label %24

24:                                               ; preds = %23
  br label %25

25:                                               ; preds = %24, %1
  %26 = load i8, ptr %5, align 1, !range !4, !noundef !5
  %27 = trunc i8 %26 to i1
  %28 = call i64 @BoolGetDatum(i1 noundef zeroext %27)
  store i64 %28, ptr %2, align 8
  store i32 1, ptr %7, align 4
  br label %29

29:                                               ; preds = %25, %20
  call void @llvm.lifetime.end.p0(i64 1, ptr %6) #14
  call void @llvm.lifetime.end.p0(i64 1, ptr %5) #14
  call void @llvm.lifetime.end.p0(i64 4, ptr %4) #14
  %30 = load i64, ptr %2, align 8
  ret i64 %30
}